target datalayout = "e-m:e-p270:32:32-p271:32:32-p272:64:64-i64:64-i128:128-f80:128-n8:16:32:64-S128"
target triple = "x86_64-pc-linux-gnu"

%struct.t_blocka = type { i32, ptr, i32, ptr, i32, i32 }

@.str = private unnamed_addr constant [13 x i8] c"block->index\00", align 1
@.str.1 = private unnamed_addr constant [124 x i8] c"generated/home/dtcxzyw/WorkSpace/Projects/compilers/llvm-opt-benchmark/bench/gromacs/gromacs/src/gromacs/topology/block.cpp\00", align 1
@.str.2 = private unnamed_addr constant [9 x i8] c"block->a\00", align 1

; Function Attrs: inlinehint mustprogress uwtable
define internal void @_ZL14gmx_sfree_implIiEvPKcS1_iPT_(ptr noundef %0, ptr noundef %1, i32 noundef %2, ptr noundef %3) #1 {
  %5 = alloca ptr, align 8
  %6 = alloca ptr, align 8
  %7 = alloca i32, align 4
  %8 = alloca ptr, align 8
  store ptr %0, ptr %5, align 8, !tbaa !16
  store ptr %1, ptr %6, align 8, !tbaa !16
  store i32 %2, ptr %7, align 4, !tbaa !15
  store ptr %3, ptr %8, align 8, !tbaa !23
  %9 = load ptr, ptr %5, align 8, !tbaa !16
  %10 = load ptr, ptr %6, align 8, !tbaa !16
  %11 = load i32, ptr %7, align 4, !tbaa !15
  %12 = load ptr, ptr %8, align 8, !tbaa !23
  call void @_Z9save_freePKcS0_iPv(ptr noundef %9, ptr noundef %10, i32 noundef %11, ptr noundef %12)
  ret void
}

; Function Attrs: mustprogress uwtable
define void @_Z11done_blockaP8t_blocka(ptr noundef %0) #0 {
  %2 = alloca ptr, align 8
  store ptr %0, ptr %2, align 8, !tbaa !24
  %3 = load ptr, ptr %2, align 8, !tbaa !24
  %4 = getelementptr inbounds nuw %struct.t_blocka, ptr %3, i32 0, i32 0
  store i32 0, ptr %4, align 8, !tbaa !26
  %5 = load ptr, ptr %2, align 8, !tbaa !24
  %6 = getelementptr inbounds nuw %struct.t_blocka, ptr %5, i32 0, i32 2
  store i32 0, ptr %6, align 8, !tbaa !28
  %7 = load ptr, ptr %2, align 8, !tbaa !24
  %8 = getelementptr inbounds nuw %struct.t_blocka, ptr %7, i32 0, i32 1
  %9 = load ptr, ptr %8, align 8, !tbaa !30
  call void @_ZL14gmx_sfree_implIiEvPKcS1_iPT_(ptr noundef @.str, ptr noundef @.str.1, i32 noundef 82, ptr noundef %9)
  %10 = load ptr, ptr %2, align 8, !tbaa !24
  %11 = getelementptr inbounds nuw %struct.t_blocka, ptr %10, i32 0, i32 3
  %12 = load ptr, ptr %11, align 8, !tbaa !32
  call void @_ZL14gmx_sfree_implIiEvPKcS1_iPT_(ptr noundef @.str.2, ptr noundef @.str.1, i32 noundef 83, ptr noundef %12)
  %13 = load ptr, ptr %2, align 8, !tbaa !24
  %14 = getelementptr inbounds nuw %struct.t_blocka, ptr %13, i32 0, i32 1
  store ptr null, ptr %14, align 8, !tbaa !30
  %15 = load ptr, ptr %2, align 8, !tbaa !24
  %16 = getelementptr inbounds nuw %struct.t_blocka, ptr %15, i32 0, i32 3
  store ptr null, ptr %16, align 8, !tbaa !32
  %17 = load ptr, ptr %2, align 8, !tbaa !24
  %18 = getelementptr inbounds nuw %struct.t_blocka, ptr %17, i32 0, i32 4
  store i32 0, ptr %18, align 8, !tbaa !29
  %19 = load ptr, ptr %2, align 8, !tbaa !24
  %20 = getelementptr inbounds nuw %struct.t_blocka, ptr %19, i32 0, i32 5
  store i32 0, ptr %20, align 4, !tbaa !31
  ret void
}